target datalayout = "e-m:e-p270:32:32-p271:32:32-p272:64:64-i64:64-i128:128-f80:128-n8:16:32:64-S128"
target triple = "x86_64-pc-linux-gnu"

%struct.AVFilterContext = type { ptr, ptr, ptr, ptr, ptr, i32, ptr, ptr, i32, ptr, ptr, i32, i32, ptr, ptr, ptr, ptr, i32, ptr, i32, i32 }
%struct.ShowCWTContext = type { ptr, i32, i32, i32, ptr, %struct.AVRational, %struct.AVRational, ptr, ptr, ptr, ptr, i32, i32, i32, i64, i64, i64, ptr, ptr, ptr, ptr, ptr, ptr, ptr, ptr, ptr, ptr, ptr, ptr, ptr, ptr, ptr, ptr, i32, i32, i32, i32, i32, i32, i32, i32, i32, i32, i32, i32, i32, i32, i32, i32, i32, float, i32, i32, float, float, float, float, float, float, i32, i32, float, ptr }
%struct.AVRational = type { i32, i32 }
%struct.AVFrame = type { [8 x ptr], [8 x i32], ptr, i32, i32, i32, i32, i32, %struct.AVRational, i64, i64, %struct.AVRational, i32, ptr, i32, i32, [8 x ptr], ptr, i32, ptr, i32, i32, i32, i32, i32, i32, i32, i64, ptr, i32, ptr, ptr, i64, i64, i64, i64, ptr, %struct.AVChannelLayout, i64 }
%struct.AVChannelLayout = type { i32, i32, %union.anon.1, ptr }
%union.anon.1 = type { i64 }
%struct.AVComplexFloat = type { float, float }

; Function Attrs: nounwind uwtable
define internal i32 @run_channel_cwt_prepare(ptr noundef %0, ptr noundef %1, i32 noundef %2, i32 noundef %3) #1 {
  %5 = alloca i32, align 4
  %6 = alloca ptr, align 8
  %7 = alloca ptr, align 8
  %8 = alloca i32, align 4
  %9 = alloca i32, align 4
  %10 = alloca ptr, align 8
  %11 = alloca i32, align 4
  %12 = alloca ptr, align 8
  %13 = alloca ptr, align 8
  %14 = alloca ptr, align 8
  %15 = alloca ptr, align 8
  %16 = alloca i32, align 4
  %17 = alloca ptr, align 8
  %18 = alloca i32, align 4
  %19 = alloca i32, align 4
  %20 = alloca i32, align 4
  store ptr %0, ptr %6, align 8, !tbaa !4
  store ptr %1, ptr %7, align 8, !tbaa !149
  store i32 %2, ptr %8, align 4, !tbaa !35
  store i32 %3, ptr %9, align 4, !tbaa !35
  call void @llvm.lifetime.start.p0(i64 8, ptr %10) #12
  %21 = load ptr, ptr %6, align 8, !tbaa !4
  %22 = getelementptr inbounds nuw %struct.AVFilterContext, ptr %21, i32 0, i32 9
  %23 = load ptr, ptr %22, align 8, !tbaa !9
  store ptr %23, ptr %10, align 8, !tbaa !22
  call void @llvm.lifetime.start.p0(i64 4, ptr %11) #12
  %24 = load ptr, ptr %10, align 8, !tbaa !22
  %25 = getelementptr inbounds nuw %struct.ShowCWTContext, ptr %24, i32 0, i32 41
  %26 = load i32, ptr %25, align 8, !tbaa !57
  store i32 %26, ptr %11, align 4, !tbaa !35
  call void @llvm.lifetime.start.p0(i64 8, ptr %12) #12
  %27 = load ptr, ptr %7, align 8, !tbaa !149
  store ptr %27, ptr %12, align 8, !tbaa !55
  call void @llvm.lifetime.start.p0(i64 8, ptr %13) #12
  %28 = load ptr, ptr %10, align 8, !tbaa !22
  %29 = getelementptr inbounds nuw %struct.ShowCWTContext, ptr %28, i32 0, i32 22
  %30 = load ptr, ptr %29, align 8, !tbaa !116
  %31 = getelementptr inbounds nuw %struct.AVFrame, ptr %30, i32 0, i32 2
  %32 = load ptr, ptr %31, align 8, !tbaa !151
  %33 = load i32, ptr %9, align 4, !tbaa !35
  %34 = sext i32 %33 to i64
  %35 = getelementptr inbounds ptr, ptr %32, i64 %34
  %36 = load ptr, ptr %35, align 8, !tbaa !128
  store ptr %36, ptr %13, align 8, !tbaa !134
  call void @llvm.lifetime.start.p0(i64 8, ptr %14) #12
  %37 = load ptr, ptr %10, align 8, !tbaa !22
  %38 = getelementptr inbounds nuw %struct.ShowCWTContext, ptr %37, i32 0, i32 24
  %39 = load ptr, ptr %38, align 8, !tbaa !112
  %40 = getelementptr inbounds nuw %struct.AVFrame, ptr %39, i32 0, i32 2
  %41 = load ptr, ptr %40, align 8, !tbaa !151
  %42 = load i32, ptr %9, align 4, !tbaa !35
  %43 = sext i32 %42 to i64
  %44 = getelementptr inbounds ptr, ptr %41, i64 %43
  %45 = load ptr, ptr %44, align 8, !tbaa !128
  store ptr %45, ptr %14, align 8, !tbaa !138
  call void @llvm.lifetime.start.p0(i64 8, ptr %15) #12
  %46 = load ptr, ptr %10, align 8, !tbaa !22
  %47 = getelementptr inbounds nuw %struct.ShowCWTContext, ptr %46, i32 0, i32 25
  %48 = load ptr, ptr %47, align 8, !tbaa !113
  %49 = getelementptr inbounds nuw %struct.AVFrame, ptr %48, i32 0, i32 2
  %50 = load ptr, ptr %49, align 8, !tbaa !151
  %51 = load i32, ptr %9, align 4, !tbaa !35
  %52 = sext i32 %51 to i64
  %53 = getelementptr inbounds ptr, ptr %50, i64 %52
  %54 = load ptr, ptr %53, align 8, !tbaa !128
  store ptr %54, ptr %15, align 8, !tbaa !138
  call void @llvm.lifetime.start.p0(i64 4, ptr %16) #12
  %55 = load ptr, ptr %10, align 8, !tbaa !22
  %56 = getelementptr inbounds nuw %struct.ShowCWTContext, ptr %55, i32 0, i32 45
  %57 = load i32, ptr %56, align 8, !tbaa !98
  %58 = load i32, ptr %11, align 4, !tbaa !35
  %59 = sub nsw i32 %57, %58
  %60 = ashr i32 %59, 1
  store i32 %60, ptr %16, align 4, !tbaa !35
  %61 = load ptr, ptr %12, align 8, !tbaa !55
  %62 = icmp ne ptr %61, null
  br i1 %62, label %63, label %98

63:                                               ; preds = %4
  call void @llvm.lifetime.start.p0(i64 8, ptr %17) #12
  %64 = load ptr, ptr %12, align 8, !tbaa !55
  %65 = getelementptr inbounds nuw %struct.AVFrame, ptr %64, i32 0, i32 2
  %66 = load ptr, ptr %65, align 8, !tbaa !151
  %67 = load i32, ptr %9, align 4, !tbaa !35
  %68 = sext i32 %67 to i64
  %69 = getelementptr inbounds ptr, ptr %66, i64 %68
  %70 = load ptr, ptr %69, align 8, !tbaa !128
  store ptr %70, ptr %17, align 8, !tbaa !134
  call void @llvm.lifetime.start.p0(i64 4, ptr %18) #12
  %71 = load ptr, ptr %10, align 8, !tbaa !22
  %72 = getelementptr inbounds nuw %struct.ShowCWTContext, ptr %71, i32 0, i32 41
  %73 = load i32, ptr %72, align 8, !tbaa !57
  %74 = load ptr, ptr %12, align 8, !tbaa !55
  %75 = getelementptr inbounds nuw %struct.AVFrame, ptr %74, i32 0, i32 5
  %76 = load i32, ptr %75, align 8, !tbaa !69
  %77 = sub nsw i32 %73, %76
  store i32 %77, ptr %18, align 4, !tbaa !35
  %78 = load ptr, ptr %13, align 8, !tbaa !134
  %79 = load ptr, ptr %13, align 8, !tbaa !134
  %80 = load ptr, ptr %12, align 8, !tbaa !55
  %81 = getelementptr inbounds nuw %struct.AVFrame, ptr %80, i32 0, i32 5
  %82 = load i32, ptr %81, align 8, !tbaa !69
  %83 = sext i32 %82 to i64
  %84 = getelementptr inbounds float, ptr %79, i64 %83
  %85 = load i32, ptr %18, align 4, !tbaa !35
  %86 = sext i32 %85 to i64
  %87 = mul i64 %86, 4
  call void @llvm.memmove.p0.p0.i64(ptr align 4 %78, ptr align 4 %84, i64 %87, i1 false)
  %88 = load ptr, ptr %13, align 8, !tbaa !134
  %89 = load i32, ptr %18, align 4, !tbaa !35
  %90 = sext i32 %89 to i64
  %91 = getelementptr inbounds float, ptr %88, i64 %90
  %92 = load ptr, ptr %17, align 8, !tbaa !134
  %93 = load ptr, ptr %12, align 8, !tbaa !55
  %94 = getelementptr inbounds nuw %struct.AVFrame, ptr %93, i32 0, i32 5
  %95 = load i32, ptr %94, align 8, !tbaa !69
  %96 = sext i32 %95 to i64
  %97 = mul i64 %96, 4
  call void @llvm.memcpy.p0.p0.i64(ptr align 4 %91, ptr align 4 %92, i64 %97, i1 false)
  call void @llvm.lifetime.end.p0(i64 4, ptr %18) #12
  call void @llvm.lifetime.end.p0(i64 8, ptr %17) #12
  br label %98

98:                                               ; preds = %63, %4
  %99 = load ptr, ptr %12, align 8, !tbaa !55
  %100 = icmp ne ptr %99, null
  br i1 %100, label %101, label %112

101:                                              ; preds = %98
  %102 = load ptr, ptr %10, align 8, !tbaa !22
  %103 = getelementptr inbounds nuw %struct.ShowCWTContext, ptr %102, i32 0, i32 43
  %104 = load i32, ptr %103, align 8, !tbaa !56
  %105 = load ptr, ptr %12, align 8, !tbaa !55
  %106 = getelementptr inbounds nuw %struct.AVFrame, ptr %105, i32 0, i32 5
  %107 = load i32, ptr %106, align 8, !tbaa !69
  %108 = add nsw i32 %104, %107
  %109 = load i32, ptr %11, align 4, !tbaa !35
  %110 = icmp slt i32 %108, %109
  br i1 %110, label %111, label %112

111:                                              ; preds = %101
  store i32 0, ptr %5, align 4
  store i32 1, ptr %19, align 4
  br label %153

112:                                              ; preds = %101, %98
  %113 = load ptr, ptr %14, align 8, !tbaa !138
  %114 = load ptr, ptr %10, align 8, !tbaa !22
  %115 = getelementptr inbounds nuw %struct.ShowCWTContext, ptr %114, i32 0, i32 11
  %116 = load i32, ptr %115, align 8, !tbaa !108
  %117 = sext i32 %116 to i64
  %118 = mul i64 4, %117
  call void @llvm.memset.p0.i64(ptr align 4 %113, i8 0, i64 %118, i1 false)
  call void @llvm.lifetime.start.p0(i64 4, ptr %20) #12
  store i32 0, ptr %20, align 4, !tbaa !35
  br label %119

119:                                              ; preds = %137, %112
  %120 = load i32, ptr %20, align 4, !tbaa !35
  %121 = load i32, ptr %11, align 4, !tbaa !35
  %122 = icmp slt i32 %120, %121
  br i1 %122, label %124, label %123

123:                                              ; preds = %119
  store i32 2, ptr %19, align 4
  call void @llvm.lifetime.end.p0(i64 4, ptr %20) #12
  br label %140

124:                                              ; preds = %119
  %125 = load ptr, ptr %13, align 8, !tbaa !134
  %126 = load i32, ptr %20, align 4, !tbaa !35
  %127 = sext i32 %126 to i64
  %128 = getelementptr inbounds float, ptr %125, i64 %127
  %129 = load float, ptr %128, align 4, !tbaa !82
  %130 = load ptr, ptr %14, align 8, !tbaa !138
  %131 = load i32, ptr %20, align 4, !tbaa !35
  %132 = load i32, ptr %16, align 4, !tbaa !35
  %133 = add nsw i32 %131, %132
  %134 = sext i32 %133 to i64
  %135 = getelementptr inbounds %struct.AVComplexFloat, ptr %130, i64 %134
  %136 = getelementptr inbounds nuw %struct.AVComplexFloat, ptr %135, i32 0, i32 0
  store float %129, ptr %136, align 4, !tbaa !143
  br label %137

137:                                              ; preds = %124
  %138 = load i32, ptr %20, align 4, !tbaa !35
  %139 = add nsw i32 %138, 1
  store i32 %139, ptr %20, align 4, !tbaa !35
  br label %119, !llvm.loop !176

140:                                              ; preds = %123
  %141 = load ptr, ptr %10, align 8, !tbaa !22
  %142 = getelementptr inbounds nuw %struct.ShowCWTContext, ptr %141, i32 0, i32 9
  %143 = load ptr, ptr %142, align 8, !tbaa !177
  %144 = load ptr, ptr %10, align 8, !tbaa !22
  %145 = getelementptr inbounds nuw %struct.ShowCWTContext, ptr %144, i32 0, i32 7
  %146 = load ptr, ptr %145, align 8, !tbaa !24
  %147 = load i32, ptr %8, align 4, !tbaa !35
  %148 = sext i32 %147 to i64
  %149 = getelementptr inbounds ptr, ptr %146, i64 %148
  %150 = load ptr, ptr %149, align 8, !tbaa !158
  %151 = load ptr, ptr %15, align 8, !tbaa !138
  %152 = load ptr, ptr %14, align 8, !tbaa !138
  call void %143(ptr noundef %150, ptr noundef %151, ptr noundef %152, i64 noundef 8)
  store i32 0, ptr %5, align 4
  store i32 1, ptr %19, align 4
  br label %153

153:                                              ; preds = %140, %111
  call void @llvm.lifetime.end.p0(i64 4, ptr %16) #12
  call void @llvm.lifetime.end.p0(i64 8, ptr %15) #12
  call void @llvm.lifetime.end.p0(i64 8, ptr %14) #12
  call void @llvm.lifetime.end.p0(i64 8, ptr %13) #12
  call void @llvm.lifetime.end.p0(i64 8, ptr %12) #12
  call void @llvm.lifetime.end.p0(i64 4, ptr %11) #12
  call void @llvm.lifetime.end.p0(i64 8, ptr %10) #12
  %154 = load i32, ptr %5, align 4
  ret i32 %154
}

; Function Attrs: nounwind uwtable
define internal i32 @run_channels_cwt_prepare(ptr noundef %0, ptr noundef %1, i32 noundef %2, i32 noundef %3) #1 {
  %5 = alloca ptr, align 8
  %6 = alloca ptr, align 8
  %7 = alloca i32, align 4
  %8 = alloca i32, align 4
  %9 = alloca ptr, align 8
  %10 = alloca i32, align 4
  %11 = alloca i32, align 4
  %12 = alloca i32, align 4
  %13 = alloca i32, align 4
  store ptr %0, ptr %5, align 8, !tbaa !4
  store ptr %1, ptr %6, align 8, !tbaa !149
  store i32 %2, ptr %7, align 4, !tbaa !35
  store i32 %3, ptr %8, align 4, !tbaa !35
  call void @llvm.lifetime.start.p0(i64 8, ptr %9) #12
  %14 = load ptr, ptr %5, align 8, !tbaa !4
  %15 = getelementptr inbounds nuw %struct.AVFilterContext, ptr %14, i32 0, i32 9
  %16 = load ptr, ptr %15, align 8, !tbaa !9
  store ptr %16, ptr %9, align 8, !tbaa !22
  call void @llvm.lifetime.start.p0(i64 4, ptr %10) #12
  %17 = load ptr, ptr %9, align 8, !tbaa !22
  %18 = getelementptr inbounds nuw %struct.ShowCWTContext, ptr %17, i32 0, i32 34
  %19 = load i32, ptr %18, align 4, !tbaa !59
  store i32 %19, ptr %10, align 4, !tbaa !35
  call void @llvm.lifetime.start.p0(i64 4, ptr %11) #12
  %20 = load i32, ptr %10, align 4, !tbaa !35
  %21 = load i32, ptr %7, align 4, !tbaa !35
  %22 = mul nsw i32 %20, %21
  %23 = load i32, ptr %8, align 4, !tbaa !35
  %24 = sdiv i32 %22, %23
  store i32 %24, ptr %11, align 4, !tbaa !35
  call void @llvm.lifetime.start.p0(i64 4, ptr %12) #12
  %25 = load i32, ptr %10, align 4, !tbaa !35
  %26 = load i32, ptr %7, align 4, !tbaa !35
  %27 = add nsw i32 %26, 1
  %28 = mul nsw i32 %25, %27
  %29 = load i32, ptr %8, align 4, !tbaa !35
  %30 = sdiv i32 %28, %29
  store i32 %30, ptr %12, align 4, !tbaa !35
  call void @llvm.lifetime.start.p0(i64 4, ptr %13) #12
  %31 = load i32, ptr %11, align 4, !tbaa !35
  store i32 %31, ptr %13, align 4, !tbaa !35
  br label %32

32:                                               ; preds = %43, %4
  %33 = load i32, ptr %13, align 4, !tbaa !35
  %34 = load i32, ptr %12, align 4, !tbaa !35
  %35 = icmp slt i32 %33, %34
  br i1 %35, label %37, label %36

36:                                               ; preds = %32
  call void @llvm.lifetime.end.p0(i64 4, ptr %13) #12
  br label %46

37:                                               ; preds = %32
  %38 = load ptr, ptr %5, align 8, !tbaa !4
  %39 = load ptr, ptr %6, align 8, !tbaa !149
  %40 = load i32, ptr %7, align 4, !tbaa !35
  %41 = load i32, ptr %13, align 4, !tbaa !35
  %42 = call i32 @run_channel_cwt_prepare(ptr noundef %38, ptr noundef %39, i32 noundef %40, i32 noundef %41)
  br label %43

43:                                               ; preds = %37
  %44 = load i32, ptr %13, align 4, !tbaa !35
  %45 = add nsw i32 %44, 1
  store i32 %45, ptr %13, align 4, !tbaa !35
  br label %32, !llvm.loop !150

46:                                               ; preds = %36
  call void @llvm.lifetime.end.p0(i64 4, ptr %12) #12
  call void @llvm.lifetime.end.p0(i64 4, ptr %11) #12
  call void @llvm.lifetime.end.p0(i64 4, ptr %10) #12
  call void @llvm.lifetime.end.p0(i64 8, ptr %9) #12
  ret i32 0
}