; Function Attrs: nounwind uwtable
define internal noundef i32 @run_channels_cwt_prepare(ptr noundef readonly captures(none) %0, ptr noundef readonly captures(address_is_null) %1, i32 noundef %2, i32 noundef %3) #1 {
  %5 = getelementptr inbounds nuw i8, ptr %0, i64 72
  %6 = load ptr, ptr %5, align 8, !tbaa !4
  %7 = getelementptr inbounds nuw i8, ptr %6, i64 252
  %8 = load i32, ptr %7, align 4, !tbaa !50
  %9 = mul nsw i32 %8, %2
  %10 = sdiv i32 %9, %3
  %11 = add nsw i32 %2, 1
  %12 = mul nsw i32 %8, %11
  %13 = sdiv i32 %12, %3
  %14 = icmp slt i32 %10, %13
  br i1 %14, label %.lr.ph, label %._crit_edge

.lr.ph:                                           ; preds = %4
  %.not.i = icmp eq ptr %1, null
  %15 = getelementptr inbounds nuw i8, ptr %1, i64 96
  %16 = getelementptr inbounds nuw i8, ptr %1, i64 112
  %17 = sext i32 %2 to i64
  %18 = sext i32 %10 to i64
  br i1 %.not.i, label %.critedge.i.us, label %.lr.ph.split

.critedge.i.us:                                   ; preds = %.lr.ph, %._crit_edge.i.us
  %indvars.iv18 = phi i64 [ %indvars.iv.next19, %._crit_edge.i.us ], [ %18, %.lr.ph ]
  %.val.us = load ptr, ptr %5, align 8, !tbaa !4
  %19 = getelementptr inbounds nuw i8, ptr %.val.us, i64 280
  %20 = load i32, ptr %19, align 8, !tbaa !48
  %21 = getelementptr inbounds nuw i8, ptr %.val.us, i64 160
  %22 = load ptr, ptr %21, align 8, !tbaa !107
  %23 = getelementptr inbounds nuw i8, ptr %22, i64 96
  %24 = load ptr, ptr %23, align 8, !tbaa !137
  %25 = getelementptr inbounds ptr, ptr %24, i64 %indvars.iv18
  %26 = load ptr, ptr %25, align 8, !tbaa !120
  %27 = getelementptr inbounds nuw i8, ptr %.val.us, i64 176
  %28 = load ptr, ptr %27, align 8, !tbaa !103
  %29 = getelementptr inbounds nuw i8, ptr %28, i64 96
  %30 = load ptr, ptr %29, align 8, !tbaa !137
  %31 = getelementptr inbounds ptr, ptr %30, i64 %indvars.iv18
  %32 = load ptr, ptr %31, align 8, !tbaa !120
  %33 = getelementptr inbounds nuw i8, ptr %.val.us, i64 184
  %34 = load ptr, ptr %33, align 8, !tbaa !104
  %35 = getelementptr inbounds nuw i8, ptr %34, i64 96
  %36 = load ptr, ptr %35, align 8, !tbaa !137
  %37 = getelementptr inbounds ptr, ptr %36, i64 %indvars.iv18
  %38 = load ptr, ptr %37, align 8, !tbaa !120
  %39 = getelementptr inbounds nuw i8, ptr %.val.us, i64 296
  %40 = load i32, ptr %39, align 8, !tbaa !90
  %41 = getelementptr inbounds nuw i8, ptr %.val.us, i64 80
  %42 = load i32, ptr %41, align 8, !tbaa !99
  %43 = sext i32 %42 to i64
  %44 = shl nsw i64 %43, 2
  tail call void @llvm.memset.p0.i64(ptr align 4 %32, i8 0, i64 %44, i1 false)
  %45 = icmp sgt i32 %20, 0
  br i1 %45, label %.lr.ph.preheader.i.us, label %._crit_edge.i.us

.lr.ph.preheader.i.us:                            ; preds = %.critedge.i.us
  %46 = sub nsw i32 %40, %20
  %47 = ashr i32 %46, 1
  %48 = sext i32 %47 to i64
  %wide.trip.count.i.us = zext nneg i32 %20 to i64
  %invariant.gep.i.us = getelementptr %struct.AVComplexFloat, ptr %32, i64 %48
  br label %.lr.ph.i.us

.lr.ph.i.us:                                      ; preds = %.lr.ph.i.us, %.lr.ph.preheader.i.us
  %indvars.iv.i.us = phi i64 [ 0, %.lr.ph.preheader.i.us ], [ %indvars.iv.next.i.us, %.lr.ph.i.us ]
  %49 = getelementptr inbounds nuw float, ptr %26, i64 %indvars.iv.i.us
  %50 = load float, ptr %49, align 4, !tbaa !76
  %gep.i.us = getelementptr %struct.AVComplexFloat, ptr %invariant.gep.i.us, i64 %indvars.iv.i.us
  store float %50, ptr %gep.i.us, align 4, !tbaa !129
  %indvars.iv.next.i.us = add nuw nsw i64 %indvars.iv.i.us, 1
  %exitcond.not.i.us = icmp eq i64 %indvars.iv.next.i.us, %wide.trip.count.i.us
  br i1 %exitcond.not.i.us, label %._crit_edge.i.us, label %.lr.ph.i.us, !llvm.loop !138

._crit_edge.i.us:                                 ; preds = %.lr.ph.i.us, %.critedge.i.us
  %51 = getelementptr inbounds nuw i8, ptr %.val.us, i64 64
  %52 = load ptr, ptr %51, align 8, !tbaa !139
  %53 = getelementptr inbounds nuw i8, ptr %.val.us, i64 48
  %54 = load ptr, ptr %53, align 8, !tbaa !20
  %55 = getelementptr inbounds ptr, ptr %54, i64 %17
  %56 = load ptr, ptr %55, align 8, !tbaa !140
  tail call void %52(ptr noundef %56, ptr noundef %38, ptr noundef %32, i64 noundef 8) #13
  %indvars.iv.next19 = add nsw i64 %indvars.iv18, 1
  %lftr.wideiv21 = trunc i64 %indvars.iv.next19 to i32
  %exitcond22.not = icmp eq i32 %13, %lftr.wideiv21
  br i1 %exitcond22.not, label %._crit_edge, label %.critedge.i.us, !llvm.loop !142

._crit_edge:                                      ; preds = %run_channel_cwt_prepare.exit, %._crit_edge.i.us, %4
  ret i32 0

.lr.ph.split:                                     ; preds = %.lr.ph, %run_channel_cwt_prepare.exit
  %indvars.iv = phi i64 [ %indvars.iv.next, %run_channel_cwt_prepare.exit ], [ %18, %.lr.ph ]
  %.val = load ptr, ptr %5, align 8, !tbaa !4
  %57 = getelementptr inbounds nuw i8, ptr %.val, i64 280
  %58 = load i32, ptr %57, align 8, !tbaa !48
  %59 = getelementptr inbounds nuw i8, ptr %.val, i64 160
  %60 = load ptr, ptr %59, align 8, !tbaa !107
  %61 = getelementptr inbounds nuw i8, ptr %60, i64 96
  %62 = load ptr, ptr %61, align 8, !tbaa !137
  %63 = getelementptr inbounds ptr, ptr %62, i64 %indvars.iv
  %64 = load ptr, ptr %63, align 8, !tbaa !120
  %65 = getelementptr inbounds nuw i8, ptr %.val, i64 176
  %66 = load ptr, ptr %65, align 8, !tbaa !103
  %67 = getelementptr inbounds nuw i8, ptr %66, i64 96
  %68 = load ptr, ptr %67, align 8, !tbaa !137
  %69 = getelementptr inbounds ptr, ptr %68, i64 %indvars.iv
  %70 = load ptr, ptr %69, align 8, !tbaa !120
  %71 = getelementptr inbounds nuw i8, ptr %.val, i64 184
  %72 = load ptr, ptr %71, align 8, !tbaa !104
  %73 = getelementptr inbounds nuw i8, ptr %72, i64 96
  %74 = load ptr, ptr %73, align 8, !tbaa !137
  %75 = getelementptr inbounds ptr, ptr %74, i64 %indvars.iv
  %76 = load ptr, ptr %75, align 8, !tbaa !120
  %77 = getelementptr inbounds nuw i8, ptr %.val, i64 296
  %78 = load i32, ptr %77, align 8, !tbaa !90
  %79 = sub nsw i32 %78, %58
  %80 = ashr i32 %79, 1
  %81 = load ptr, ptr %15, align 8, !tbaa !137
  %82 = getelementptr inbounds ptr, ptr %81, i64 %indvars.iv
  %83 = load ptr, ptr %82, align 8, !tbaa !120
  %84 = load i32, ptr %16, align 8, !tbaa !60
  %85 = sub nsw i32 %58, %84
  %86 = sext i32 %84 to i64
  %87 = getelementptr inbounds float, ptr %64, i64 %86
  %88 = sext i32 %85 to i64
  %89 = shl nsw i64 %88, 2
  tail call void @llvm.memmove.p0.p0.i64(ptr align 4 %64, ptr align 4 %87, i64 %89, i1 false)
  %90 = getelementptr inbounds float, ptr %64, i64 %88
  %91 = load i32, ptr %16, align 8, !tbaa !60
  %92 = sext i32 %91 to i64
  %93 = shl nsw i64 %92, 2
  tail call void @llvm.memcpy.p0.p0.i64(ptr align 4 %90, ptr align 4 %83, i64 %93, i1 false)
  %94 = getelementptr inbounds nuw i8, ptr %.val, i64 288
  %95 = load i32, ptr %94, align 8, !tbaa !47
  %96 = load i32, ptr %16, align 8, !tbaa !60
  %97 = add nsw i32 %96, %95
  %98 = icmp slt i32 %97, %58
  br i1 %98, label %run_channel_cwt_prepare.exit, label %.critedge.i

.critedge.i:                                      ; preds = %.lr.ph.split
  %99 = getelementptr inbounds nuw i8, ptr %.val, i64 80
  %100 = load i32, ptr %99, align 8, !tbaa !99
  %101 = sext i32 %100 to i64
  %102 = shl nsw i64 %101, 2
  tail call void @llvm.memset.p0.i64(ptr align 4 %70, i8 0, i64 %102, i1 false)
  %103 = icmp sgt i32 %58, 0
  br i1 %103, label %.lr.ph.preheader.i, label %._crit_edge.i

.lr.ph.preheader.i:                               ; preds = %.critedge.i
  %104 = sext i32 %80 to i64
  %wide.trip.count.i = zext nneg i32 %58 to i64
  %invariant.gep.i = getelementptr %struct.AVComplexFloat, ptr %70, i64 %104
  br label %.lr.ph.i

._crit_edge.i:                                    ; preds = %.lr.ph.i, %.critedge.i
  %105 = getelementptr inbounds nuw i8, ptr %.val, i64 64
  %106 = load ptr, ptr %105, align 8, !tbaa !139
  %107 = getelementptr inbounds nuw i8, ptr %.val, i64 48
  %108 = load ptr, ptr %107, align 8, !tbaa !20
  %109 = getelementptr inbounds ptr, ptr %108, i64 %17
  %110 = load ptr, ptr %109, align 8, !tbaa !140
  tail call void %106(ptr noundef %110, ptr noundef %76, ptr noundef %70, i64 noundef 8) #13
  br label %run_channel_cwt_prepare.exit

.lr.ph.i:                                         ; preds = %.lr.ph.i, %.lr.ph.preheader.i
  %indvars.iv.i = phi i64 [ 0, %.lr.ph.preheader.i ], [ %indvars.iv.next.i, %.lr.ph.i ]
  %111 = getelementptr inbounds nuw float, ptr %64, i64 %indvars.iv.i
  %112 = load float, ptr %111, align 4, !tbaa !76
  %gep.i = getelementptr %struct.AVComplexFloat, ptr %invariant.gep.i, i64 %indvars.iv.i
  store float %112, ptr %gep.i, align 4, !tbaa !129
  %indvars.iv.next.i = add nuw nsw i64 %indvars.iv.i, 1
  %exitcond.not.i = icmp eq i64 %indvars.iv.next.i, %wide.trip.count.i
  br i1 %exitcond.not.i, label %._crit_edge.i, label %.lr.ph.i, !llvm.loop !138

run_channel_cwt_prepare.exit:                     ; preds = %.lr.ph.split, %._crit_edge.i
  %indvars.iv.next = add nsw i64 %indvars.iv, 1
  %lftr.wideiv = trunc i64 %indvars.iv.next to i32
  %exitcond.not = icmp eq i32 %13, %lftr.wideiv
  br i1 %exitcond.not, label %._crit_edge, label %.lr.ph.split, !llvm.loop !142
}